
Arduino1Wire_Mega_2560_ADK.elf:     file format elf32-avr

Sections:
Idx Name          Size      VMA       LMA       File off  Algn
  0 .text         0000013a  00000000  00000000  00000054  2**1
                  CONTENTS, ALLOC, LOAD, READONLY, CODE
  1 .comment      00000030  00000000  00000000  0000018e  2**0
                  CONTENTS, READONLY

Disassembly of section .text:

00000000 <__vectors>:
   0:	0c 94 72 00 	jmp	0xe4	; 0xe4 <__ctors_end>
   4:	0c 94 7e 00 	jmp	0xfc	; 0xfc <__bad_interrupt>
   8:	0c 94 7e 00 	jmp	0xfc	; 0xfc <__bad_interrupt>
   c:	0c 94 7e 00 	jmp	0xfc	; 0xfc <__bad_interrupt>
  10:	0c 94 7e 00 	jmp	0xfc	; 0xfc <__bad_interrupt>
  14:	0c 94 7e 00 	jmp	0xfc	; 0xfc <__bad_interrupt>
  18:	0c 94 7e 00 	jmp	0xfc	; 0xfc <__bad_interrupt>
  1c:	0c 94 7e 00 	jmp	0xfc	; 0xfc <__bad_interrupt>
  20:	0c 94 7e 00 	jmp	0xfc	; 0xfc <__bad_interrupt>
  24:	0c 94 7e 00 	jmp	0xfc	; 0xfc <__bad_interrupt>
  28:	0c 94 7e 00 	jmp	0xfc	; 0xfc <__bad_interrupt>
  2c:	0c 94 7e 00 	jmp	0xfc	; 0xfc <__bad_interrupt>
  30:	0c 94 7e 00 	jmp	0xfc	; 0xfc <__bad_interrupt>
  34:	0c 94 7e 00 	jmp	0xfc	; 0xfc <__bad_interrupt>
  38:	0c 94 7e 00 	jmp	0xfc	; 0xfc <__bad_interrupt>
  3c:	0c 94 7e 00 	jmp	0xfc	; 0xfc <__bad_interrupt>
  40:	0c 94 7e 00 	jmp	0xfc	; 0xfc <__bad_interrupt>
  44:	0c 94 7e 00 	jmp	0xfc	; 0xfc <__bad_interrupt>
  48:	0c 94 7e 00 	jmp	0xfc	; 0xfc <__bad_interrupt>
  4c:	0c 94 7e 00 	jmp	0xfc	; 0xfc <__bad_interrupt>
  50:	0c 94 7e 00 	jmp	0xfc	; 0xfc <__bad_interrupt>
  54:	0c 94 7e 00 	jmp	0xfc	; 0xfc <__bad_interrupt>
  58:	0c 94 7e 00 	jmp	0xfc	; 0xfc <__bad_interrupt>
  5c:	0c 94 7e 00 	jmp	0xfc	; 0xfc <__bad_interrupt>
  60:	0c 94 7e 00 	jmp	0xfc	; 0xfc <__bad_interrupt>
  64:	0c 94 7e 00 	jmp	0xfc	; 0xfc <__bad_interrupt>
  68:	0c 94 7e 00 	jmp	0xfc	; 0xfc <__bad_interrupt>
  6c:	0c 94 7e 00 	jmp	0xfc	; 0xfc <__bad_interrupt>
  70:	0c 94 7e 00 	jmp	0xfc	; 0xfc <__bad_interrupt>
  74:	0c 94 7e 00 	jmp	0xfc	; 0xfc <__bad_interrupt>
  78:	0c 94 7e 00 	jmp	0xfc	; 0xfc <__bad_interrupt>
  7c:	0c 94 7e 00 	jmp	0xfc	; 0xfc <__bad_interrupt>
  80:	0c 94 7e 00 	jmp	0xfc	; 0xfc <__bad_interrupt>
  84:	0c 94 7e 00 	jmp	0xfc	; 0xfc <__bad_interrupt>
  88:	0c 94 7e 00 	jmp	0xfc	; 0xfc <__bad_interrupt>
  8c:	0c 94 7e 00 	jmp	0xfc	; 0xfc <__bad_interrupt>
  90:	0c 94 7e 00 	jmp	0xfc	; 0xfc <__bad_interrupt>
  94:	0c 94 7e 00 	jmp	0xfc	; 0xfc <__bad_interrupt>
  98:	0c 94 7e 00 	jmp	0xfc	; 0xfc <__bad_interrupt>
  9c:	0c 94 7e 00 	jmp	0xfc	; 0xfc <__bad_interrupt>
  a0:	0c 94 7e 00 	jmp	0xfc	; 0xfc <__bad_interrupt>
  a4:	0c 94 7e 00 	jmp	0xfc	; 0xfc <__bad_interrupt>
  a8:	0c 94 7e 00 	jmp	0xfc	; 0xfc <__bad_interrupt>
  ac:	0c 94 7e 00 	jmp	0xfc	; 0xfc <__bad_interrupt>
  b0:	0c 94 7e 00 	jmp	0xfc	; 0xfc <__bad_interrupt>
  b4:	0c 94 7e 00 	jmp	0xfc	; 0xfc <__bad_interrupt>
  b8:	0c 94 7e 00 	jmp	0xfc	; 0xfc <__bad_interrupt>
  bc:	0c 94 7e 00 	jmp	0xfc	; 0xfc <__bad_interrupt>
  c0:	0c 94 7e 00 	jmp	0xfc	; 0xfc <__bad_interrupt>
  c4:	0c 94 7e 00 	jmp	0xfc	; 0xfc <__bad_interrupt>
  c8:	0c 94 7e 00 	jmp	0xfc	; 0xfc <__bad_interrupt>
  cc:	0c 94 7e 00 	jmp	0xfc	; 0xfc <__bad_interrupt>
  d0:	0c 94 7e 00 	jmp	0xfc	; 0xfc <__bad_interrupt>
  d4:	0c 94 7e 00 	jmp	0xfc	; 0xfc <__bad_interrupt>
  d8:	0c 94 7e 00 	jmp	0xfc	; 0xfc <__bad_interrupt>
  dc:	0c 94 7e 00 	jmp	0xfc	; 0xfc <__bad_interrupt>
  e0:	0c 94 7e 00 	jmp	0xfc	; 0xfc <__bad_interrupt>

000000e4 <__ctors_end>:
  e4:	11 24       	eor	r1, r1
  e6:	1f be       	out	0x3f, r1	; 63
  e8:	cf ef       	ldi	r28, 0xFF	; 255
  ea:	d1 e2       	ldi	r29, 0x21	; 33
  ec:	de bf       	out	0x3e, r29	; 62
  ee:	cd bf       	out	0x3d, r28	; 61
  f0:	00 e0       	ldi	r16, 0x00	; 0
  f2:	0c bf       	out	0x3c, r16	; 60
  f4:	0e 94 80 00 	call	0x100	; 0x100 <main>
  f8:	0c 94 9b 00 	jmp	0x136	; 0x136 <_exit>

000000fc <__bad_interrupt>:
  fc:	0c 94 00 00 	jmp	0	; 0x0 <__vectors>

00000100 <main>:
 100:	10 92 c1 00 	sts	0x00C1, r1
 104:	69 9a       	sbi	0x0d, 1	; 13
 106:	8d b1       	in	r24, 0x0d	; 13
 108:	8d b9       	out	0x0d, r24	; 13
 10a:	8e b1       	in	r24, 0x0e	; 14
 10c:	83 60       	ori	r24, 0x03	; 3
 10e:	8e b9       	out	0x0e, r24	; 14
 110:	2a 9a       	sbi	0x05, 2	; 5
 112:	60 99       	sbic	0x0c, 0	; 12
 114:	fe cf       	rjmp	.-4      	; 0x112 <main+0x12>
 116:	22 9a       	sbi	0x04, 2	; 4
 118:	2a 98       	cbi	0x05, 2	; 5
 11a:	71 98       	cbi	0x0e, 1	; 14
 11c:	60 9b       	sbis	0x0c, 0	; 12
 11e:	fe cf       	rjmp	.-4      	; 0x11c <main+0x1c>
 120:	2a 9a       	sbi	0x05, 2	; 5
 122:	22 98       	cbi	0x04, 2	; 4
 124:	2a 9a       	sbi	0x05, 2	; 5
 126:	60 9b       	sbis	0x0c, 0	; 12
 128:	f6 cf       	rjmp	.-20     	; 0x116 <main+0x16>
 12a:	1a 9b       	sbis	0x03, 2	; 3
 12c:	02 c0       	rjmp	.+4      	; 0x132 <main+0x32>
 12e:	71 9a       	sbi	0x0e, 1	; 14
 130:	fa cf       	rjmp	.-12     	; 0x126 <main+0x26>
 132:	71 98       	cbi	0x0e, 1	; 14
 134:	f8 cf       	rjmp	.-16     	; 0x126 <main+0x26>

00000136 <_exit>:
 136:	f8 94       	cli

00000138 <__stop_program>:
 138:	ff cf       	rjmp	.-2      	; 0x138 <__stop_program>
